target datalayout = "e-m:e-p270:32:32-p271:32:32-p272:64:64-i64:64-i128:128-f80:128-n8:16:32:64-S128"
target triple = "x86_64-pc-linux-gnu"

%struct.nstime_t = type { i64, i32 }
%struct._packet_info = type { ptr, ptr, i32, i32, %struct.nstime_t, %struct.nstime_t, %struct.nstime_t, i32, ptr, ptr, ptr, ptr, %struct._address, %struct._address, %struct._address, %struct._address, %struct._address, %struct._address, i32, ptr, i32, %struct.anon, i32, i32, i32, i32, ptr, i32, ptr, ptr, i16, i16, i32, i32, i16, i32, i32, ptr, ptr, ptr, i8, i8, i16, i16, i16, i32, i16, i16, ptr, ptr, ptr, ptr, ptr, i32 }
%struct._address = type { i32, i32, ptr, ptr }
%struct.anon = type { i8, [3 x i8] }
%struct._frame_data = type { i32, i32, i32, i32, i64, ptr, ptr, ptr, i16, i16, %struct.nstime_t, %struct.nstime_t, i32, i32, i8 }
%struct.snmp_conv_info_t = type { ptr }

@proto_snmp = internal global i32 0, align 4
@snmp_handle = internal global ptr null, align 8

; Function Attrs: nounwind uwtable
define internal ptr @snmp_find_conversation_and_get_conv_data(ptr noundef %0) #0 {
  %2 = alloca ptr, align 8
  %3 = alloca ptr, align 8
  %4 = alloca ptr, align 8
  store ptr %0, ptr %2, align 8
  store ptr null, ptr %3, align 8
  store ptr null, ptr %4, align 8
  %5 = load ptr, ptr %2, align 8
  %6 = getelementptr inbounds %struct._packet_info, ptr %5, i32 0, i32 24
  %7 = load i32, ptr %6, align 8
  %8 = icmp eq i32 %7, 161
  br i1 %8, label %9, label %27

9:                                                ; preds = %1
  %10 = load ptr, ptr %2, align 8
  %11 = getelementptr inbounds %struct._packet_info, ptr %10, i32 0, i32 8
  %12 = load ptr, ptr %11, align 8
  %13 = getelementptr inbounds %struct._frame_data, ptr %12, i32 0, i32 0
  %14 = load i32, ptr %13, align 8
  %15 = load ptr, ptr %2, align 8
  %16 = getelementptr inbounds %struct._packet_info, ptr %15, i32 0, i32 16
  %17 = load ptr, ptr %2, align 8
  %18 = getelementptr inbounds %struct._packet_info, ptr %17, i32 0, i32 17
  %19 = load ptr, ptr %2, align 8
  %20 = getelementptr inbounds %struct._packet_info, ptr %19, i32 0, i32 22
  %21 = load i32, ptr %20, align 8
  %22 = call i32 @conversation_pt_to_conversation_type(i32 noundef %21)
  %23 = load ptr, ptr %2, align 8
  %24 = getelementptr inbounds %struct._packet_info, ptr %23, i32 0, i32 23
  %25 = load i32, ptr %24, align 4
  %26 = call ptr @find_conversation(i32 noundef %14, ptr noundef %16, ptr noundef %18, i32 noundef %22, i32 noundef %25, i32 noundef 0, i32 noundef 131072)
  store ptr %26, ptr %3, align 8
  br label %51

27:                                               ; preds = %1
  %28 = load ptr, ptr %2, align 8
  %29 = getelementptr inbounds %struct._packet_info, ptr %28, i32 0, i32 23
  %30 = load i32, ptr %29, align 4
  %31 = icmp eq i32 %30, 161
  br i1 %31, label %32, label %50

32:                                               ; preds = %27
  %33 = load ptr, ptr %2, align 8
  %34 = getelementptr inbounds %struct._packet_info, ptr %33, i32 0, i32 8
  %35 = load ptr, ptr %34, align 8
  %36 = getelementptr inbounds %struct._frame_data, ptr %35, i32 0, i32 0
  %37 = load i32, ptr %36, align 8
  %38 = load ptr, ptr %2, align 8
  %39 = getelementptr inbounds %struct._packet_info, ptr %38, i32 0, i32 17
  %40 = load ptr, ptr %2, align 8
  %41 = getelementptr inbounds %struct._packet_info, ptr %40, i32 0, i32 16
  %42 = load ptr, ptr %2, align 8
  %43 = getelementptr inbounds %struct._packet_info, ptr %42, i32 0, i32 22
  %44 = load i32, ptr %43, align 8
  %45 = call i32 @conversation_pt_to_conversation_type(i32 noundef %44)
  %46 = load ptr, ptr %2, align 8
  %47 = getelementptr inbounds %struct._packet_info, ptr %46, i32 0, i32 24
  %48 = load i32, ptr %47, align 8
  %49 = call ptr @find_conversation(i32 noundef %37, ptr noundef %39, ptr noundef %41, i32 noundef %45, i32 noundef %48, i32 noundef 0, i32 noundef 131072)
  store ptr %49, ptr %3, align 8
  br label %50

50:                                               ; preds = %32, %27
  br label %51

51:                                               ; preds = %50, %9
  %52 = load ptr, ptr %3, align 8
  %53 = icmp eq ptr %52, null
  br i1 %53, label %62, label %54

54:                                               ; preds = %51
  %55 = load ptr, ptr %3, align 8
  %56 = load ptr, ptr %2, align 8
  %57 = getelementptr inbounds %struct._packet_info, ptr %56, i32 0, i32 3
  %58 = load i32, ptr %57, align 4
  %59 = call ptr @conversation_get_dissector(ptr noundef %55, i32 noundef %58)
  %60 = load ptr, ptr @snmp_handle, align 8
  %61 = icmp ne ptr %59, %60
  br i1 %61, label %62, label %65

62:                                               ; preds = %54, %51
  %63 = load ptr, ptr %2, align 8
  %64 = call nonnull ptr @find_or_create_conversation(ptr noundef %63)
  store ptr %64, ptr %3, align 8
  br label %65

65:                                               ; preds = %62, %54
  %66 = load ptr, ptr %3, align 8
  %67 = load i32, ptr @proto_snmp, align 4
  %68 = call ptr @conversation_get_proto_data(ptr noundef %66, i32 noundef %67)
  store ptr %68, ptr %4, align 8
  %69 = load ptr, ptr %4, align 8
  %70 = icmp eq ptr %69, null
  br i1 %70, label %71, label %81

71:                                               ; preds = %65
  %72 = call ptr @wmem_file_scope()
  %73 = call noalias ptr @wmem_alloc0(ptr noundef %72, i64 noundef 8)
  store ptr %73, ptr %4, align 8
  %74 = call ptr @wmem_file_scope()
  %75 = call noalias ptr @wmem_map_new(ptr noundef %74, ptr noundef @g_int_hash, ptr noundef @g_int_equal)
  %76 = load ptr, ptr %4, align 8
  %77 = getelementptr inbounds %struct.snmp_conv_info_t, ptr %76, i32 0, i32 0
  store ptr %75, ptr %77, align 8
  %78 = load ptr, ptr %3, align 8
  %79 = load i32, ptr @proto_snmp, align 4
  %80 = load ptr, ptr %4, align 8
  call void @conversation_add_proto_data(ptr noundef %78, i32 noundef %79, ptr noundef %80)
  br label %81

81:                                               ; preds = %71, %65
  %82 = load ptr, ptr %4, align 8
  ret ptr %82
}