; Function Attrs: nounwind uwtable
define internal fastcc ptr @snmp_find_conversation_and_get_conv_data(ptr noundef %0) unnamed_addr #0 {
  %2 = getelementptr inbounds nuw i8, ptr %0, i64 288
  %3 = load i32, ptr %2, align 8
  %4 = icmp eq i32 %3, 161
  br i1 %4, label %5, label %17

5:                                                ; preds = %1
  %6 = getelementptr inbounds nuw i8, ptr %0, i64 80
  %7 = load ptr, ptr %6, align 8
  %8 = load i32, ptr %7, align 8
  %9 = getelementptr inbounds nuw i8, ptr %0, i64 208
  %10 = getelementptr inbounds nuw i8, ptr %0, i64 232
  %11 = getelementptr inbounds nuw i8, ptr %0, i64 280
  %12 = load i32, ptr %11, align 8
  %13 = tail call i32 @conversation_pt_to_conversation_type(i32 noundef %12) #11
  %14 = getelementptr inbounds nuw i8, ptr %0, i64 284
  %15 = load i32, ptr %14, align 4
  %16 = tail call ptr @find_conversation(i32 noundef %8, ptr noundef nonnull %9, ptr noundef nonnull %10, i32 noundef %13, i32 noundef %15, i32 noundef 0, i32 noundef 131072) #11
  br label %32

17:                                               ; preds = %1
  %18 = getelementptr inbounds nuw i8, ptr %0, i64 284
  %19 = load i32, ptr %18, align 4
  %20 = icmp eq i32 %19, 161
  br i1 %20, label %21, label %.thread

21:                                               ; preds = %17
  %22 = getelementptr inbounds nuw i8, ptr %0, i64 80
  %23 = load ptr, ptr %22, align 8
  %24 = load i32, ptr %23, align 8
  %25 = getelementptr inbounds nuw i8, ptr %0, i64 232
  %26 = getelementptr inbounds nuw i8, ptr %0, i64 208
  %27 = getelementptr inbounds nuw i8, ptr %0, i64 280
  %28 = load i32, ptr %27, align 8
  %29 = tail call i32 @conversation_pt_to_conversation_type(i32 noundef %28) #11
  %30 = load i32, ptr %2, align 8
  %31 = tail call ptr @find_conversation(i32 noundef %24, ptr noundef nonnull %25, ptr noundef nonnull %26, i32 noundef %29, i32 noundef %30, i32 noundef 0, i32 noundef 131072) #11
  br label %32

32:                                               ; preds = %21, %5
  %.022 = phi ptr [ %16, %5 ], [ %31, %21 ]
  %33 = icmp eq ptr %.022, null
  br i1 %33, label %.thread, label %34

34:                                               ; preds = %32
  %35 = getelementptr inbounds nuw i8, ptr %0, i64 20
  %36 = load i32, ptr %35, align 4
  %37 = tail call ptr @conversation_get_dissector(ptr noundef nonnull %.022, i32 noundef %36) #11
  %38 = load ptr, ptr @snmp_handle, align 8
  %.not = icmp eq ptr %37, %38
  br i1 %.not, label %40, label %.thread

.thread:                                          ; preds = %17, %34, %32
  %39 = tail call nonnull ptr @find_or_create_conversation(ptr noundef nonnull %0) #11
  br label %40

40:                                               ; preds = %.thread, %34
  %.1 = phi ptr [ %39, %.thread ], [ %.022, %34 ]
  %41 = load i32, ptr @proto_snmp, align 4
  %42 = tail call ptr @conversation_get_proto_data(ptr noundef nonnull %.1, i32 noundef %41) #11
  %43 = icmp eq ptr %42, null
  br i1 %43, label %44, label %50

44:                                               ; preds = %40
  %45 = tail call ptr @wmem_file_scope() #11
  %46 = tail call noalias ptr @wmem_alloc0(ptr noundef %45, i64 noundef 8) #11
  %47 = tail call ptr @wmem_file_scope() #11
  %48 = tail call noalias ptr @wmem_map_new(ptr noundef %47, ptr noundef nonnull @g_int_hash, ptr noundef nonnull @g_int_equal) #11
  store ptr %48, ptr %46, align 8
  %49 = load i32, ptr @proto_snmp, align 4
  tail call void @conversation_add_proto_data(ptr noundef nonnull %.1, i32 noundef %49, ptr noundef nonnull %46) #11
  br label %50

50:                                               ; preds = %44, %40
  %.0 = phi ptr [ %46, %44 ], [ %42, %40 ]
  ret ptr %.0
}